target datalayout = "e-m:e-p270:32:32-p271:32:32-p272:64:64-i64:64-i128:128-f80:128-n8:16:32:64-S128"
target triple = "x86_64-pc-linux-gnu"

%class.Type = type <{ ptr, ptr, i32, [4 x i8] }>
%class.Type.base = type <{ ptr, ptr, i32 }>
%class.TypeNarrowPtr = type { %class.Type.base, ptr }

@_ZN4Type3TOPE = hidden global ptr null, align 8

; Function Attrs: mustprogress nounwind uwtable
define linkonce_odr hidden noundef ptr @_ZNK4Type4dualEv(ptr noundef nonnull align 8 dereferenceable(20) %0) #1 comdat align 2 {
  %2 = alloca ptr, align 8
  store ptr %0, ptr %2, align 8
  %3 = load ptr, ptr %2, align 8
  %4 = getelementptr inbounds %class.Type, ptr %3, i32 0, i32 1
  %5 = load ptr, ptr %4, align 8
  ret ptr %5
}

; Function Attrs: mustprogress nounwind uwtable
define linkonce_odr hidden void @_ZNK4Type24assert_type_verify_emptyEv(ptr noundef nonnull align 8 dereferenceable(20) %0) #1 comdat align 2 {
  %2 = alloca ptr, align 8
  store ptr %0, ptr %2, align 8
  ret void
}

; Function Attrs: mustprogress nounwind uwtable
define linkonce_odr hidden noundef ptr @_ZNK4Type11join_helperEPKS_b(ptr noundef nonnull align 8 dereferenceable(20) %0, ptr noundef %1, i1 noundef zeroext %2) #1 comdat align 2 {
  %4 = alloca ptr, align 8
  %5 = alloca ptr, align 8
  %6 = alloca i8, align 1
  store ptr %0, ptr %4, align 8
  store ptr %1, ptr %5, align 8
  %7 = zext i1 %2 to i8
  store i8 %7, ptr %6, align 1
  %8 = load ptr, ptr %4, align 8
  call void @_ZNK4Type24assert_type_verify_emptyEv(ptr noundef nonnull align 8 dereferenceable(20) %8)
  %9 = call noundef ptr @_ZNK4Type4dualEv(ptr noundef nonnull align 8 dereferenceable(20) %8)
  %10 = load ptr, ptr %5, align 8
  %11 = call noundef ptr @_ZNK4Type4dualEv(ptr noundef nonnull align 8 dereferenceable(20) %10)
  %12 = load i8, ptr %6, align 1
  %13 = trunc i8 %12 to i1
  %14 = call noundef ptr @_ZNK4Type11meet_helperEPKS_b(ptr noundef nonnull align 8 dereferenceable(20) %9, ptr noundef %11, i1 noundef zeroext %13)
  %15 = call noundef ptr @_ZNK4Type4dualEv(ptr noundef nonnull align 8 dereferenceable(20) %14)
  ret ptr %15
}

; Function Attrs: mustprogress nounwind uwtable
define linkonce_odr hidden noundef ptr @_ZNK4Type7isa_ptrEv(ptr noundef nonnull align 8 dereferenceable(20) %0) #1 comdat align 2 {
  %2 = alloca ptr, align 8
  store ptr %0, ptr %2, align 8
  %3 = load ptr, ptr %2, align 8
  %4 = getelementptr inbounds %class.Type, ptr %3, i32 0, i32 2
  %5 = load i32, ptr %4, align 8
  %6 = icmp sge i32 %5, 18
  br i1 %6, label %7, label %12

7:                                                ; preds = %1
  %8 = getelementptr inbounds %class.Type, ptr %3, i32 0, i32 2
  %9 = load i32, ptr %8, align 8
  %10 = icmp sle i32 %9, 26
  br i1 %10, label %11, label %12

11:                                               ; preds = %7
  br label %13

12:                                               ; preds = %7, %1
  br label %13

13:                                               ; preds = %12, %11
  %14 = phi ptr [ %3, %11 ], [ null, %12 ]
  ret ptr %14
}

; Function Attrs: mustprogress nounwind uwtable
define hidden noundef ptr @_ZNK13TypeNarrowPtr13filter_helperEPK4Typeb(ptr noundef nonnull align 8 dereferenceable(32) %0, ptr noundef %1, i1 noundef zeroext %2) unnamed_addr #1 align 2 {
  %4 = alloca ptr, align 8
  %5 = alloca ptr, align 8
  %6 = alloca ptr, align 8
  %7 = alloca i8, align 1
  %8 = alloca ptr, align 8
  %9 = alloca ptr, align 8
  store ptr %0, ptr %5, align 8
  store ptr %1, ptr %6, align 8
  %10 = zext i1 %2 to i8
  store i8 %10, ptr %7, align 1
  %11 = load ptr, ptr %5, align 8
  %12 = load ptr, ptr %6, align 8
  %13 = load ptr, ptr %11, align 8
  %14 = getelementptr inbounds ptr, ptr %13, i64 22
  %15 = load ptr, ptr %14, align 8
  %16 = call noundef ptr %15(ptr noundef nonnull align 8 dereferenceable(32) %11, ptr noundef %12)
  %17 = icmp ne ptr %16, null
  br i1 %17, label %18, label %54

18:                                               ; preds = %3
  %19 = getelementptr inbounds %class.TypeNarrowPtr, ptr %11, i32 0, i32 1
  %20 = load ptr, ptr %19, align 8
  %21 = load ptr, ptr %6, align 8
  %22 = load ptr, ptr %11, align 8
  %23 = getelementptr inbounds ptr, ptr %22, i64 23
  %24 = load ptr, ptr %23, align 8
  %25 = call noundef ptr %24(ptr noundef nonnull align 8 dereferenceable(32) %11, ptr noundef %21)
  %26 = getelementptr inbounds %class.TypeNarrowPtr, ptr %25, i32 0, i32 1
  %27 = load ptr, ptr %26, align 8
  %28 = load i8, ptr %7, align 1
  %29 = trunc i8 %28 to i1
  %30 = load ptr, ptr %20, align 8
  %31 = getelementptr inbounds ptr, ptr %30, i64 1
  %32 = load ptr, ptr %31, align 8
  %33 = call noundef ptr %32(ptr noundef nonnull align 8 dereferenceable(20) %20, ptr noundef %27, i1 noundef zeroext %29)
  store ptr %33, ptr %8, align 8
  %34 = load ptr, ptr %8, align 8
  %35 = load ptr, ptr %34, align 8
  %36 = getelementptr inbounds ptr, ptr %35, i64 9
  %37 = load ptr, ptr %36, align 8
  %38 = call noundef zeroext i1 %37(ptr noundef nonnull align 8 dereferenceable(20) %34)
  br i1 %38, label %39, label %41

39:                                               ; preds = %18
  %40 = load ptr, ptr @_ZN4Type3TOPE, align 8
  store ptr %40, ptr %4, align 8
  br label %76

41:                                               ; preds = %18
  %42 = load ptr, ptr %8, align 8
  %43 = call noundef ptr @_ZNK4Type7isa_ptrEv(ptr noundef nonnull align 8 dereferenceable(20) %42)
  %44 = icmp ne ptr %43, null
  br i1 %44, label %45, label %52

45:                                               ; preds = %41
  %46 = load ptr, ptr %8, align 8
  %47 = call noundef ptr @_ZNK4Type7isa_ptrEv(ptr noundef nonnull align 8 dereferenceable(20) %46)
  %48 = load ptr, ptr %11, align 8
  %49 = getelementptr inbounds ptr, ptr %48, i64 25
  %50 = load ptr, ptr %49, align 8
  %51 = call noundef ptr %50(ptr noundef nonnull align 8 dereferenceable(32) %11, ptr noundef %47)
  store ptr %51, ptr %4, align 8
  br label %76

52:                                               ; preds = %41
  %53 = load ptr, ptr %8, align 8
  store ptr %53, ptr %4, align 8
  br label %76

54:                                               ; preds = %3
  %55 = load ptr, ptr %6, align 8
  %56 = call noundef ptr @_ZNK4Type7isa_ptrEv(ptr noundef nonnull align 8 dereferenceable(20) %55)
  %57 = icmp ne ptr %56, null
  br i1 %57, label %58, label %74

58:                                               ; preds = %54
  %59 = getelementptr inbounds %class.TypeNarrowPtr, ptr %11, i32 0, i32 1
  %60 = load ptr, ptr %59, align 8
  %61 = load ptr, ptr %6, align 8
  %62 = load i8, ptr %7, align 1
  %63 = trunc i8 %62 to i1
  %64 = call noundef ptr @_ZNK4Type11join_helperEPKS_b(ptr noundef nonnull align 8 dereferenceable(20) %60, ptr noundef %61, i1 noundef zeroext %63)
  store ptr %64, ptr %9, align 8
  %65 = load ptr, ptr %9, align 8
  %66 = load ptr, ptr %65, align 8
  %67 = getelementptr inbounds ptr, ptr %66, i64 9
  %68 = load ptr, ptr %67, align 8
  %69 = call noundef zeroext i1 %68(ptr noundef nonnull align 8 dereferenceable(20) %65)
  br i1 %69, label %70, label %72

70:                                               ; preds = %58
  %71 = load ptr, ptr @_ZN4Type3TOPE, align 8
  store ptr %71, ptr %4, align 8
  br label %76

72:                                               ; preds = %58
  %73 = load ptr, ptr %9, align 8
  store ptr %73, ptr %4, align 8
  br label %76

74:                                               ; preds = %54
  %75 = load ptr, ptr @_ZN4Type3TOPE, align 8
  store ptr %75, ptr %4, align 8
  br label %76

76:                                               ; preds = %74, %72, %70, %52, %45, %39
  %77 = load ptr, ptr %4, align 8
  ret ptr %77
}