; Function Attrs: mustprogress nounwind uwtable
define hidden noundef ptr @_ZNK13TypeNarrowPtr13filter_helperEPK4Typeb(ptr noundef nonnull align 8 dereferenceable(32) %0, ptr noundef %1, i1 noundef zeroext %2) unnamed_addr #0 align 2 {
  %4 = load ptr, ptr %0, align 8
  %5 = getelementptr inbounds i8, ptr %4, i64 176
  %6 = load ptr, ptr %5, align 8
  %7 = tail call noundef ptr %6(ptr noundef nonnull align 8 dereferenceable(32) %0, ptr noundef %1) #17
  %.not = icmp eq ptr %7, null
  br i1 %.not, label %36, label %8

8:                                                ; preds = %3
  %9 = getelementptr inbounds i8, ptr %0, i64 24
  %10 = load ptr, ptr %9, align 8
  %11 = load ptr, ptr %0, align 8
  %12 = getelementptr inbounds i8, ptr %11, i64 184
  %13 = load ptr, ptr %12, align 8
  %14 = tail call noundef ptr %13(ptr noundef nonnull align 8 dereferenceable(32) %0, ptr noundef %1) #17
  %15 = getelementptr inbounds i8, ptr %14, i64 24
  %16 = load ptr, ptr %15, align 8
  %17 = load ptr, ptr %10, align 8
  %18 = getelementptr inbounds i8, ptr %17, i64 8
  %19 = load ptr, ptr %18, align 8
  %20 = tail call noundef ptr %19(ptr noundef nonnull align 8 dereferenceable(20) %10, ptr noundef %16, i1 noundef zeroext %2) #17
  %21 = load ptr, ptr %20, align 8
  %22 = getelementptr inbounds i8, ptr %21, i64 72
  %23 = load ptr, ptr %22, align 8
  %24 = tail call noundef zeroext i1 %23(ptr noundef nonnull align 8 dereferenceable(20) %20) #17
  br i1 %24, label %25, label %27

25:                                               ; preds = %8
  %26 = load ptr, ptr @_ZN4Type3TOPE, align 8
  br label %57

27:                                               ; preds = %8
  %28 = getelementptr inbounds i8, ptr %20, i64 16
  %29 = load i32, ptr %28, align 8
  %30 = add i32 %29, -27
  %or.cond.i = icmp ult i32 %30, -9
  br i1 %or.cond.i, label %57, label %31

31:                                               ; preds = %27
  %32 = load ptr, ptr %0, align 8
  %33 = getelementptr inbounds i8, ptr %32, i64 200
  %34 = load ptr, ptr %33, align 8
  %35 = tail call noundef ptr %34(ptr noundef nonnull align 8 dereferenceable(32) %0, ptr noundef nonnull %20) #17
  br label %57

36:                                               ; preds = %3
  %37 = getelementptr inbounds i8, ptr %1, i64 16
  %38 = load i32, ptr %37, align 8
  %39 = add i32 %38, -27
  %or.cond.i16 = icmp ult i32 %39, -9
  %.not1318 = icmp eq ptr %1, null
  %.not13 = or i1 %.not1318, %or.cond.i16
  br i1 %.not13, label %55, label %40

40:                                               ; preds = %36
  %41 = getelementptr inbounds i8, ptr %0, i64 24
  %42 = load ptr, ptr %41, align 8
  %43 = getelementptr inbounds i8, ptr %42, i64 8
  %44 = load ptr, ptr %43, align 8
  %45 = getelementptr inbounds i8, ptr %1, i64 8
  %46 = load ptr, ptr %45, align 8
  %47 = tail call noundef ptr @_ZNK4Type11meet_helperEPKS_b(ptr noundef nonnull align 8 dereferenceable(20) %44, ptr noundef %46, i1 noundef zeroext %2)
  %48 = getelementptr inbounds i8, ptr %47, i64 8
  %49 = load ptr, ptr %48, align 8
  %50 = load ptr, ptr %49, align 8
  %51 = getelementptr inbounds i8, ptr %50, i64 72
  %52 = load ptr, ptr %51, align 8
  %53 = tail call noundef zeroext i1 %52(ptr noundef nonnull align 8 dereferenceable(20) %49) #17
  %54 = load ptr, ptr @_ZN4Type3TOPE, align 8
  %spec.select = select i1 %53, ptr %54, ptr %49
  br label %57

55:                                               ; preds = %36
  %56 = load ptr, ptr @_ZN4Type3TOPE, align 8
  br label %57

57:                                               ; preds = %40, %27, %55, %31, %25
  %.0 = phi ptr [ %26, %25 ], [ %35, %31 ], [ %56, %55 ], [ %20, %27 ], [ %spec.select, %40 ]
  ret ptr %.0
}